target datalayout = "e-m:e-p270:32:32-p271:32:32-p272:64:64-i64:64-i128:128-f80:128-n8:16:32:64-S128"
target triple = "x86_64-pc-linux-gnu"

%struct.auth_ops_t = type { ptr, ptr, ptr, ptr, ptr, ptr, ptr, ptr, ptr, ptr, ptr, ptr, ptr, ptr, ptr, ptr }

@g_context_num = internal global i32 -1, align 4
@ops = internal global ptr null, align 8

; Function Attrs: nounwind uwtable
define dso_local zeroext i1 @auth_is_plugin_type_inited(i32 noundef %0) #0 {
  %2 = alloca i1, align 1
  %3 = alloca i32, align 4
  %4 = alloca i32, align 4
  %5 = alloca i32, align 4
  store i32 %0, ptr %3, align 4
  call void @llvm.lifetime.start.p0(i64 4, ptr %4) #6
  store i32 0, ptr %4, align 4
  br label %6

6:                                                ; preds = %23, %1
  %7 = load i32, ptr %4, align 4
  %8 = load i32, ptr @g_context_num, align 4
  %9 = icmp slt i32 %7, %8
  br i1 %9, label %11, label %10

10:                                               ; preds = %6
  store i32 2, ptr %5, align 4
  br label %26

11:                                               ; preds = %6
  %12 = load i32, ptr %3, align 4
  %13 = load ptr, ptr @ops, align 8
  %14 = load i32, ptr %4, align 4
  %15 = sext i32 %14 to i64
  %16 = getelementptr inbounds %struct.auth_ops_t, ptr %13, i64 %15
  %17 = getelementptr inbounds nuw %struct.auth_ops_t, ptr %16, i32 0, i32 0
  %18 = load ptr, ptr %17, align 8
  %19 = load i32, ptr %18, align 4
  %20 = icmp eq i32 %12, %19
  br i1 %20, label %21, label %22

21:                                               ; preds = %11
  store i1 true, ptr %2, align 1
  store i32 1, ptr %5, align 4
  br label %26

22:                                               ; preds = %11
  br label %23

23:                                               ; preds = %22
  %24 = load i32, ptr %4, align 4
  %25 = add nsw i32 %24, 1
  store i32 %25, ptr %4, align 4
  br label %6, !llvm.loop !13

26:                                               ; preds = %21, %10
  call void @llvm.lifetime.end.p0(i64 4, ptr %4) #6
  %27 = load i32, ptr %5, align 4
  switch i32 %27, label %31 [
    i32 2, label %28
    i32 1, label %29
  ]

28:                                               ; preds = %26
  store i1 false, ptr %2, align 1
  br label %29

29:                                               ; preds = %28, %26
  %30 = load i1, ptr %2, align 1
  ret i1 %30

31:                                               ; preds = %26
  unreachable
}