; Function Attrs: nofree norecurse nosync nounwind memory(read, inaccessiblemem: none) uwtable
define dso_local noundef zeroext i1 @auth_is_plugin_type_inited(i32 noundef %0) local_unnamed_addr #4 {
  %2 = load i32, ptr @g_context_num, align 4
  %.not7 = icmp sgt i32 %2, 0
  br i1 %.not7, label %.lr.ph, label %._crit_edge

.lr.ph:                                           ; preds = %1
  %3 = load ptr, ptr @ops, align 8
  %wide.trip.count = zext nneg i32 %2 to i64
  br label %4

4:                                                ; preds = %4, %.lr.ph
  %indvars.iv = phi i64 [ 0, %.lr.ph ], [ %indvars.iv.next, %4 ]
  %5 = getelementptr inbounds nuw %struct.auth_ops_t, ptr %3, i64 %indvars.iv
  %6 = load ptr, ptr %5, align 8
  %7 = load i32, ptr %6, align 4
  %8 = icmp eq i32 %0, %7
  %indvars.iv.next = add nuw nsw i64 %indvars.iv, 1
  %exitcond.not = icmp eq i64 %indvars.iv.next, %wide.trip.count
  %or.cond = select i1 %8, i1 true, i1 %exitcond.not
  br i1 %or.cond, label %._crit_edge, label %4, !llvm.loop !13

._crit_edge:                                      ; preds = %4, %1
  %.not.lcssa = phi i1 [ false, %1 ], [ %8, %4 ]
  ret i1 %.not.lcssa
}